target datalayout = "e-m:e-p270:32:32-p271:32:32-p272:64:64-i64:64-i128:128-f80:128-n8:16:32:64-S128"
target triple = "x86_64-pc-linux-gnu"

%struct.packet_verdict_opt_s = type { i32, %union.anon }
%union.anon = type { ptr }

; Function Attrs: null_pointer_is_valid sspstrong uwtable
define void @wtap_packet_verdict_free(ptr noundef %0) #0 {
  %2 = alloca ptr, align 8
  store ptr %0, ptr %2, align 8
  %3 = load ptr, ptr %2, align 8
  %4 = getelementptr inbounds nuw %struct.packet_verdict_opt_s, ptr %3, i32 0, i32 0
  %5 = load i32, ptr %4, align 8
  switch i32 %5, label %11 [
    i32 0, label %6
  ]

6:                                                ; preds = %1
  %7 = load ptr, ptr %2, align 8
  %8 = getelementptr inbounds nuw %struct.packet_verdict_opt_s, ptr %7, i32 0, i32 1
  %9 = load ptr, ptr %8, align 8
  %10 = call ptr @g_byte_array_free(ptr noundef %9, i32 noundef 1)
  br label %12

11:                                               ; preds = %1
  br label %12

12:                                               ; preds = %11, %6
  ret void
}