; Function Attrs: null_pointer_is_valid sspstrong uwtable
define void @wtap_packet_verdict_free(ptr noundef readonly captures(none) %0) local_unnamed_addr #0 {
  %2 = load i32, ptr %0, align 8
  %cond = icmp eq i32 %2, 0
  br i1 %cond, label %3, label %7

3:                                                ; preds = %1
  %4 = getelementptr inbounds nuw i8, ptr %0, i64 8
  %5 = load ptr, ptr %4, align 8
  %6 = tail call ptr @g_byte_array_free(ptr noundef %5, i32 noundef 1)
  br label %7

7:                                                ; preds = %1, %3
  ret void
}